Certificate:
    Data:
        Version: 1 (0x0)
        Serial Number: 9 (0x9)
        Signature Algorithm: sha256WithRSAEncryption
        Issuer: C=US, ST=MO, L=Saint Louis, O=Object Computing (Test Identity CA), CN=Object Computing (Test Identity CA)/emailAddress=info@objectcomputing.com
        Validity
            Not Before: Oct 25 14:32:43 2019 GMT
            Not After : Oct 22 14:32:43 2029 GMT
        Subject: C=US, ST=Missouri, O=Object Computing, CN=Relay
        Subject Public Key Info:
            Public Key Algorithm: rsaEncryption
                RSA Public-Key: (2048 bit)
                Modulus:
                    00:b6:38:c9:4a:5b:65:c9:97:53:ff:35:a2:47:92:
                    b1:13:7e:c8:48:27:b3:34:3b:fa:11:83:5e:14:4a:
                    33:4b:f2:63:8a:43:70:14:39:4a:18:e9:1b:82:c5:
                    98:0f:97:e8:a1:21:4d:14:cf:1a:02:77:59:71:48:
                    dc:10:48:f6:17:35:65:f1:56:6c:77:8e:3d:51:a5:
                    3f:e6:af:45:f0:f5:91:ec:49:3f:6c:7e:40:b8:9c:
                    71:e5:c2:41:dd:f0:9e:19:06:45:e6:9c:dd:26:43:
                    d1:5c:a6:ab:20:c8:25:b0:6e:32:cc:0d:6c:cf:af:
                    c7:ee:b9:06:7a:bf:49:89:d4:ca:31:65:00:4f:6c:
                    c0:58:b7:9d:1e:c3:d5:ed:1d:30:d8:cc:f9:4b:1d:
                    0b:6f:18:76:7b:5b:e7:18:4a:1d:53:32:a6:d5:83:
                    45:29:d8:10:15:d7:27:3b:88:99:47:8b:85:95:d2:
                    42:0f:32:21:58:b5:f7:86:3d:fa:6e:76:9b:d5:82:
                    22:d5:e5:ce:2a:26:30:b8:68:30:fe:dd:17:59:e7:
                    3e:99:c4:f5:c4:79:f5:9f:1d:37:ad:0f:0b:96:d8:
                    0d:cb:41:8c:32:00:5c:43:c8:05:72:4c:56:7b:b9:
                    b6:ae:3c:68:a5:23:41:64:83:14:a6:01:eb:87:d6:
                    9e:31
                Exponent: 65537 (0x10001)
    Signature Algorithm: sha256WithRSAEncryption
         5d:e5:a5:92:78:04:63:fc:28:5c:c0:87:1f:04:80:52:29:43:
         8c:b9:d9:26:01:9b:6b:c9:0c:7a:2b:9f:cc:21:c8:66:40:a2:
         3f:fa:2b:fe:75:f5:58:6f:2a:2d:88:ac:4f:df:17:84:bb:00:
         62:66:49:b5:a1:24:39:0d:b0:bc:7d:68:58:a4:9e:0a:ce:d6:
         95:35:84:02:2d:c2:53:dc:47:6e:ea:6a:8a:d3:e9:ba:37:8d:
         3f:cb:04:64:94:f2:1c:41:a7:7e:9c:f6:f3:5f:69:ed:c1:eb:
         d5:a7:e4:4a:e1:18:60:c9:a2:92:2b:1c:89:1f:2b:a2:bc:85:
         02:3b:01:fc:68:8b:8d:5c:30:c3:24:c6:8d:74:58:b9:e6:0b:
         e8:b3:a2:3c:81:ff:73:de:f6:68:54:e1:a5:4c:98:4a:68:6c:
         45:3f:03:62:d2:cc:1e:cd:ec:02:81:33:71:05:d9:36:8f:5e:
         ac:e5:e9:c7:33:69:34:39:1d:77:8f:56:4f:61:b9:a1:8a:f7:
         da:d8:e4:5d:f1:75:3f:9c:76:51:37:8e:67:4a:86:25:97:1b:
         4a:fc:b4:32:f9:bd:a7:99:5f:46:47:da:4b:72:06:7a:40:c1:
         1f:5b:c8:ef:67:3c:cc:ff:e0:9c:d6:6d:bc:ee:78:e2:70:06:
         cd:8f:a9:82
-----BEGIN CERTIFICATE-----
MIIDdTCCAl0CAQkwDQYJKoZIhvcNAQELBQAwgbUxCzAJBgNVBAYTAlVTMQswCQYD
VQQIDAJNTzEUMBIGA1UEBwwLU2FpbnQgTG91aXMxLDAqBgNVBAoMI09iamVjdCBD
b21wdXRpbmcgKFRlc3QgSWRlbnRpdHkgQ0EpMSwwKgYDVQQDDCNPYmplY3QgQ29t
cHV0aW5nIChUZXN0IElkZW50aXR5IENBKTEnMCUGCSqGSIb3DQEJARYYaW5mb0Bv
YmplY3Rjb21wdXRpbmcuY29tMB4XDTE5MTAyNTE0MzI0M1oXDTI5MTAyMjE0MzI0
M1owSzELMAkGA1UEBhMCVVMxETAPBgNVBAgMCE1pc3NvdXJpMRkwFwYDVQQKDBBP
YmplY3QgQ29tcHV0aW5nMQ4wDAYDVQQDDAVSZWxheTCCASIwDQYJKoZIhvcNAQEB
BQADggEPADCCAQoCggEBALY4yUpbZcmXU/81okeSsRN+yEgnszQ7+hGDXhRKM0vy
Y4pDcBQ5ShjpG4LFmA+X6KEhTRTPGgJ3WXFI3BBI9hc1ZfFWbHeOPVGlP+avRfD1
kexJP2x+QLicceXCQd3wnhkGReac3SZD0VymqyDIJbBuMswNbM+vx+65Bnq/SYnU
yjFlAE9swFi3nR7D1e0dMNjM+UsdC28Ydntb5xhKHVMyptWDRSnYEBXXJzuImUeL
hZXSQg8yIVi194Y9+m52m9WCItXlziomMLhoMP7dF1nnPpnE9cR59Z8dN60PC5bY
DctBjDIAXEPIBXJMVnu5tq48aKUjQWSDFKYB64fWnjECAwEAATANBgkqhkiG9w0B
AQsFAAOCAQEAXeWlkngEY/woXMCHHwSAUilDjLnZJgGba8kMeiufzCHIZkCiP/or
/nX1WG8qLYisT98XhLsAYmZJtaEkOQ2wvH1oWKSeCs7WlTWEAi3CU9xHbupqitPp
ujeNP8sEZJTyHEGnfpz2819p7cHr1afkSuEYYMmikisciR8roryFAjsB/GiLjVww
wyTGjXRYueYL6LOiPIH/c972aFThpUyYSmhsRT8DYtLMHs3sAoEzcQXZNo9erOXp
xzNpNDkdd49WT2G5oYr32tjkXfF1P5x2UTeOZ0qGJZcbSvy0Mvm9p5lfRkfaS3IG
ekDBH1vI72c8zP/gnNZtvO544nAGzY+pgg==
-----END CERTIFICATE-----
