Certificate:
    Data:
        Version: 1 (0x0)
        Serial Number: 4 (0x4)
    Signature Algorithm: sha256WithRSAEncryption
        Issuer: C=US, ST=MO, L=Saint Louis, O=Object Computing (Test Identity CA), CN=Object Computing (Test Identity CA)/emailAddress=info@objectcomputing.com
        Validity
            Not Before: Mar 13 22:24:08 2019 GMT
            Not After : Mar 10 22:24:08 2029 GMT
        Subject: C=US, ST=Missouri, O=Default Company Ltd, CN=Tablet
        Subject Public Key Info:
            Public Key Algorithm: rsaEncryption
                Public-Key: (2048 bit)
                Modulus:
                    00:ba:44:7c:d8:1f:a4:02:fe:6a:38:90:66:15:ee:
                    fa:16:6a:a3:5e:65:02:fb:5d:4d:64:52:87:d7:b9:
                    41:04:e6:a8:d2:90:2d:57:3a:63:e4:fd:3f:6c:2e:
                    b1:cb:51:fb:97:59:cc:4d:b3:b9:51:6a:c8:82:df:
                    b2:e5:35:d8:91:e7:f6:35:52:9d:92:a2:12:1e:70:
                    21:74:05:c0:7c:b1:21:df:a8:16:57:c1:32:e8:5b:
                    d0:f3:42:8d:21:29:9d:07:cc:ed:09:82:a2:d7:6d:
                    17:16:83:4a:3f:09:52:73:3c:50:12:57:53:62:e4:
                    4d:e0:b4:cf:ca:25:b9:9e:64:a5:0c:a1:e2:e9:61:
                    0b:5d:48:97:c3:f4:d2:99:04:e7:20:03:a0:d9:27:
                    00:eb:14:ce:66:e2:52:2a:be:f5:72:ee:40:81:1f:
                    79:0a:ab:70:97:c3:b6:cc:6e:72:fc:46:23:5e:d1:
                    ab:5a:0c:dc:97:cb:17:8c:db:6a:ac:e0:b3:7f:24:
                    82:62:fd:14:8d:b0:b1:1b:12:86:e1:cd:80:76:7a:
                    e0:8e:87:49:1c:6b:2b:05:c1:bc:96:39:25:14:4f:
                    95:89:06:89:52:65:ab:bf:a1:ac:d3:01:81:eb:db:
                    12:b2:65:09:fc:56:fb:fc:7e:d4:f5:5d:4d:b2:4a:
                    76:77
                Exponent: 65537 (0x10001)
    Signature Algorithm: sha256WithRSAEncryption
         67:f4:dd:f9:5a:e7:ef:3f:d3:79:37:89:17:21:27:c2:cd:3b:
         48:34:b8:4d:78:f4:6f:0e:f9:10:49:82:46:0b:a6:9c:ea:b7:
         80:1e:99:56:99:34:6a:42:44:f1:9b:03:33:21:dc:a5:4b:31:
         29:7e:24:8b:68:0f:6c:cf:b7:44:0d:9a:fc:25:2b:d7:de:e3:
         ee:bb:1a:4c:f8:63:d1:95:46:c4:66:00:1f:5c:47:bc:ce:f8:
         43:c8:d4:a1:46:ce:48:0b:8e:00:d9:b8:8a:c0:b7:43:ff:4d:
         d6:1b:57:5c:84:5d:9f:58:aa:aa:c0:4c:06:d6:b9:99:8f:59:
         89:3e:4f:40:3d:cd:26:ba:f1:d4:7e:da:d3:80:8a:17:44:79:
         ba:7a:2f:2d:4b:1d:bd:84:7c:d6:f7:58:6e:1e:ef:59:6f:b4:
         59:a4:fd:09:77:31:a4:3c:64:3a:b5:38:bc:aa:d3:a0:0b:4a:
         9f:55:fa:4e:5a:8c:79:fa:30:06:ad:aa:3c:74:28:07:02:b5:
         21:b7:ac:5c:9e:cf:0c:52:e7:21:0b:14:a0:6a:ef:d7:af:42:
         3c:41:66:fb:cf:7d:1b:8c:29:32:30:34:8a:5b:42:14:fc:b8:
         85:f2:9b:ed:b0:b6:27:16:ff:fc:e1:d7:56:d5:68:4d:45:ff:
         14:45:9e:3c
-----BEGIN CERTIFICATE-----
MIIDeTCCAmECAQQwDQYJKoZIhvcNAQELBQAwgbUxCzAJBgNVBAYTAlVTMQswCQYD
VQQIDAJNTzEUMBIGA1UEBwwLU2FpbnQgTG91aXMxLDAqBgNVBAoMI09iamVjdCBD
b21wdXRpbmcgKFRlc3QgSWRlbnRpdHkgQ0EpMSwwKgYDVQQDDCNPYmplY3QgQ29t
cHV0aW5nIChUZXN0IElkZW50aXR5IENBKTEnMCUGCSqGSIb3DQEJARYYaW5mb0Bv
YmplY3Rjb21wdXRpbmcuY29tMB4XDTE5MDMxMzIyMjQwOFoXDTI5MDMxMDIyMjQw
OFowTzELMAkGA1UEBhMCVVMxETAPBgNVBAgMCE1pc3NvdXJpMRwwGgYDVQQKDBNE
ZWZhdWx0IENvbXBhbnkgTHRkMQ8wDQYDVQQDDAZUYWJsZXQwggEiMA0GCSqGSIb3
DQEBAQUAA4IBDwAwggEKAoIBAQC6RHzYH6QC/mo4kGYV7voWaqNeZQL7XU1kUofX
uUEE5qjSkC1XOmPk/T9sLrHLUfuXWcxNs7lRasiC37LlNdiR5/Y1Up2SohIecCF0
BcB8sSHfqBZXwTLoW9DzQo0hKZ0HzO0JgqLXbRcWg0o/CVJzPFASV1Ni5E3gtM/K
JbmeZKUMoeLpYQtdSJfD9NKZBOcgA6DZJwDrFM5m4lIqvvVy7kCBH3kKq3CXw7bM
bnL8RiNe0ataDNyXyxeM22qs4LN/JIJi/RSNsLEbEobhzYB2euCOh0kcaysFwbyW
OSUUT5WJBolSZau/oazTAYHr2xKyZQn8Vvv8ftT1XU2ySnZ3AgMBAAEwDQYJKoZI
hvcNAQELBQADggEBAGf03fla5+8/03k3iRchJ8LNO0g0uE149G8O+RBJgkYLppzq
t4AemVaZNGpCRPGbAzMh3KVLMSl+JItoD2zPt0QNmvwlK9fe4+67Gkz4Y9GVRsRm
AB9cR7zO+EPI1KFGzkgLjgDZuIrAt0P/TdYbV1yEXZ9YqqrATAbWuZmPWYk+T0A9
zSa68dR+2tOAihdEebp6Ly1LHb2EfNb3WG4e71lvtFmk/Ql3MaQ8ZDq1OLyq06AL
Sp9V+k5ajHn6MAatqjx0KAcCtSG3rFyezwxS5yELFKBq79evQjxBZvvPfRuMKTIw
NIpbQhT8uIXym+2wticW//zh11bVaE1F/xRFnjw=
-----END CERTIFICATE-----
