Certificate:
    Data:
        Version: 1 (0x0)
        Serial Number: 6 (0x6)
    Signature Algorithm: sha256WithRSAEncryption
        Issuer: C=US, ST=MO, L=Saint Louis, O=Object Computing (Test Identity CA), CN=Object Computing (Test Identity CA)/emailAddress=info@objectcomputing.com
        Validity
            Not Before: Mar 13 22:30:19 2019 GMT
            Not After : Mar 10 22:30:19 2029 GMT
        Subject: C=US, ST=Missouri, O=Default Company Ltd, CN=Lock Two
        Subject Public Key Info:
            Public Key Algorithm: rsaEncryption
                Public-Key: (2048 bit)
                Modulus:
                    00:ec:e7:5e:e2:f8:2d:1e:0c:a0:8d:9b:38:3b:98:
                    c9:e7:32:7f:02:3e:ad:bf:33:b5:94:11:5c:aa:6c:
                    a5:48:0f:20:db:c8:07:77:27:eb:f0:a8:1e:fe:6d:
                    a0:de:7a:95:4d:d4:15:ee:2e:e0:45:13:8d:d3:fc:
                    1f:94:b2:d4:30:03:36:82:1d:e1:c1:6f:9c:9c:0c:
                    b8:46:c3:d8:d5:c6:bc:57:b3:2a:ec:2e:e2:d3:a0:
                    4b:3c:5f:6f:ba:72:6c:8a:63:6c:3d:a8:9d:c2:86:
                    c6:7b:08:a0:02:82:66:55:0a:8c:5b:4c:ae:97:9b:
                    3e:68:3e:14:fa:61:09:bd:7b:05:b3:7a:22:f8:d7:
                    51:af:5d:4c:31:ee:f2:06:b9:e1:c5:50:db:87:06:
                    fb:18:a9:3e:7f:f1:c9:07:73:12:f2:4f:39:dd:ea:
                    90:74:8d:48:2e:e8:e2:82:2b:ee:fd:61:a2:44:5c:
                    84:7d:c5:cc:60:ec:c0:65:88:58:fd:a7:99:ef:c6:
                    02:72:b4:fa:71:db:e2:57:79:1d:c3:7e:30:e6:3a:
                    6d:37:a6:bb:65:c0:30:94:89:f1:93:6d:83:d7:ef:
                    dd:94:fc:39:1c:d4:eb:85:71:56:67:f3:a6:69:e1:
                    7a:8e:8b:71:fc:1e:1c:0e:9b:7b:7f:11:f6:ae:34:
                    22:47
                Exponent: 65537 (0x10001)
    Signature Algorithm: sha256WithRSAEncryption
         33:b7:59:f2:4d:a1:38:5c:72:b1:ca:16:93:21:9f:c3:bf:37:
         4b:85:06:32:f9:54:bd:6e:d6:bd:d3:23:5d:a7:71:cc:a1:60:
         14:f7:9e:9b:2c:02:33:61:4a:55:dc:d9:36:b8:3f:65:09:b2:
         04:a0:c1:64:fd:c1:9b:4c:28:f7:54:b1:97:83:85:98:c8:b8:
         ce:99:8a:fc:f1:3f:6e:30:91:dd:e6:30:b0:9f:18:d8:70:0e:
         d7:29:88:44:40:18:5e:dc:f3:b8:33:1b:b2:66:bf:b8:93:51:
         01:2c:2b:4b:b8:73:28:97:b0:06:dc:64:0b:57:99:86:d1:1b:
         f6:ed:e2:03:59:c6:f2:0c:21:03:cc:d9:21:e6:9c:20:65:d8:
         38:8a:a0:d5:24:55:21:75:55:bc:b7:ef:98:8d:93:77:c7:f4:
         ad:91:9c:e2:1e:6f:60:6c:c3:10:13:d7:6b:5d:a5:89:a2:1a:
         57:85:12:43:a7:73:b2:c0:04:9f:26:2b:2a:65:96:09:be:f7:
         57:0c:11:5c:1f:b2:96:3e:ed:5f:fc:d2:07:6b:e8:f9:f5:91:
         6b:e8:bf:8d:d5:49:ce:86:c1:e4:e5:02:e0:4c:13:9c:9b:74:
         a6:8d:2d:c2:8a:43:ce:14:12:a9:ac:87:d1:58:26:d7:8c:59:
         9e:da:1c:4f
-----BEGIN CERTIFICATE-----
MIIDezCCAmMCAQYwDQYJKoZIhvcNAQELBQAwgbUxCzAJBgNVBAYTAlVTMQswCQYD
VQQIDAJNTzEUMBIGA1UEBwwLU2FpbnQgTG91aXMxLDAqBgNVBAoMI09iamVjdCBD
b21wdXRpbmcgKFRlc3QgSWRlbnRpdHkgQ0EpMSwwKgYDVQQDDCNPYmplY3QgQ29t
cHV0aW5nIChUZXN0IElkZW50aXR5IENBKTEnMCUGCSqGSIb3DQEJARYYaW5mb0Bv
YmplY3Rjb21wdXRpbmcuY29tMB4XDTE5MDMxMzIyMzAxOVoXDTI5MDMxMDIyMzAx
OVowUTELMAkGA1UEBhMCVVMxETAPBgNVBAgMCE1pc3NvdXJpMRwwGgYDVQQKDBNE
ZWZhdWx0IENvbXBhbnkgTHRkMREwDwYDVQQDDAhMb2NrIFR3bzCCASIwDQYJKoZI
hvcNAQEBBQADggEPADCCAQoCggEBAOznXuL4LR4MoI2bODuYyecyfwI+rb8ztZQR
XKpspUgPINvIB3cn6/CoHv5toN56lU3UFe4u4EUTjdP8H5Sy1DADNoId4cFvnJwM
uEbD2NXGvFezKuwu4tOgSzxfb7pybIpjbD2oncKGxnsIoAKCZlUKjFtMrpebPmg+
FPphCb17BbN6IvjXUa9dTDHu8ga54cVQ24cG+xipPn/xyQdzEvJPOd3qkHSNSC7o
4oIr7v1hokRchH3FzGDswGWIWP2nme/GAnK0+nHb4ld5HcN+MOY6bTemu2XAMJSJ
8ZNtg9fv3ZT8ORzU64VxVmfzpmnheo6LcfweHA6be38R9q40IkcCAwEAATANBgkq
hkiG9w0BAQsFAAOCAQEAM7dZ8k2hOFxyscoWkyGfw783S4UGMvlUvW7WvdMjXadx
zKFgFPeemywCM2FKVdzZNrg/ZQmyBKDBZP3Bm0wo91Sxl4OFmMi4zpmK/PE/bjCR
3eYwsJ8Y2HAO1ymIREAYXtzzuDMbsma/uJNRASwrS7hzKJewBtxkC1eZhtEb9u3i
A1nG8gwhA8zZIeacIGXYOIqg1SRVIXVVvLfvmI2Td8f0rZGc4h5vYGzDEBPXa12l
iaIaV4USQ6dzssAEnyYrKmWWCb73VwwRXB+ylj7tX/zSB2vo+fWRa+i/jdVJzobB
5OUC4EwTnJt0po0twopDzhQSqayH0Vgm14xZntocTw==
-----END CERTIFICATE-----
