Certificate:
    Data:
        Version: 1 (0x0)
        Serial Number: 1 (0x1)
    Signature Algorithm: sha256WithRSAEncryption
        Issuer: C=US, ST=MO, L=Saint Louis, O=Object Computing (Test Identity CA), CN=Object Computing (Test Identity CA)/emailAddress=info@objectcomputing.com
        Validity
            Not Before: Mar 13 22:04:09 2019 GMT
            Not After : Mar 10 22:04:09 2029 GMT
        Subject: C=US, ST=Missouri, O=Object Computing Inc, CN=OCI/emailAddress=info@objectcomputing.com
        Subject Public Key Info:
            Public Key Algorithm: rsaEncryption
                Public-Key: (2048 bit)
                Modulus:
                    00:db:e1:d6:3e:36:2a:5f:10:f5:93:2f:47:63:bf:
                    01:4f:8a:0d:ff:1f:d0:18:e6:00:f7:83:eb:89:f8:
                    f7:c4:57:dd:96:42:c2:dc:b6:69:0c:0b:5c:74:bf:
                    98:77:c8:69:90:05:ae:1e:ed:fe:ce:f7:9a:97:e4:
                    00:15:37:4b:28:ad:dd:ce:b2:19:05:29:0a:f4:44:
                    df:99:6c:0a:e1:a1:6a:86:90:00:a2:d9:3b:87:2a:
                    86:20:7b:fe:9d:32:b3:e7:b4:ff:9e:0d:fc:d6:6d:
                    95:35:df:22:fe:12:f3:fd:90:c0:a0:74:27:cb:f0:
                    f8:e5:8a:94:33:a4:b5:11:97:65:02:3f:b0:b1:bf:
                    d5:3a:db:cc:00:24:66:14:61:79:fd:68:bf:b8:42:
                    26:4d:e5:da:e0:04:e6:7f:fb:9d:a8:8e:f5:85:9b:
                    2c:f1:a6:41:a2:e4:49:69:6b:26:95:e3:ad:59:91:
                    bc:8c:79:12:37:4a:30:01:a3:dd:b6:bb:60:bc:eb:
                    3e:8c:57:1a:b3:d8:73:2c:d0:ae:e8:07:b9:8c:7d:
                    21:25:fb:74:dc:18:cc:d9:a7:a6:7b:79:8b:79:09:
                    39:f6:6e:c3:8a:d2:31:58:f2:4c:13:93:69:25:b4:
                    36:17:96:c4:39:3f:e6:58:3f:3a:dd:6b:25:8a:24:
                    60:45
                Exponent: 65537 (0x10001)
    Signature Algorithm: sha256WithRSAEncryption
         5c:a3:ff:ed:b6:70:ea:71:59:e0:d3:c7:56:f6:48:81:70:56:
         d3:14:c1:11:a4:88:f3:d7:b2:d5:e6:75:dc:57:a1:7d:33:ca:
         a1:8a:30:1b:ae:59:cc:39:4f:1a:45:d1:90:aa:f2:d6:f3:cd:
         39:ac:2e:37:54:93:4f:9a:15:0c:62:aa:6f:a2:57:9a:1e:bf:
         40:ae:8f:4c:e8:6d:33:33:09:a8:ff:10:08:fe:45:91:7d:52:
         1b:7a:a7:8b:a5:63:e0:17:4c:3e:e4:6b:59:42:45:ed:f9:e5:
         a7:1b:d0:82:63:71:91:0d:8c:34:61:40:3f:78:03:5d:cd:17:
         56:6f:79:d6:6a:cf:9f:c7:28:73:17:71:fd:de:8d:3d:0c:bd:
         ad:a5:dd:05:47:70:44:24:24:65:5c:aa:a2:43:e7:1e:af:86:
         a1:79:78:c4:df:62:4d:5a:dd:8d:e5:82:2f:3f:ce:9b:f0:76:
         a6:3e:b0:3b:ca:de:5b:97:50:f8:73:43:62:39:54:2b:8b:97:
         4a:6c:3c:6a:87:42:f2:ca:bf:04:2b:75:21:04:8f:dd:dc:86:
         0b:5f:39:f2:19:e7:3d:c1:f1:c1:fb:c2:36:a9:4c:44:01:68:
         f7:13:f0:8a:68:bc:17:a8:ea:8d:88:ef:d3:66:0f:b5:f7:0e:
         e5:d9:ec:9e
-----BEGIN CERTIFICATE-----
MIIDoDCCAogCAQEwDQYJKoZIhvcNAQELBQAwgbUxCzAJBgNVBAYTAlVTMQswCQYD
VQQIDAJNTzEUMBIGA1UEBwwLU2FpbnQgTG91aXMxLDAqBgNVBAoMI09iamVjdCBD
b21wdXRpbmcgKFRlc3QgSWRlbnRpdHkgQ0EpMSwwKgYDVQQDDCNPYmplY3QgQ29t
cHV0aW5nIChUZXN0IElkZW50aXR5IENBKTEnMCUGCSqGSIb3DQEJARYYaW5mb0Bv
YmplY3Rjb21wdXRpbmcuY29tMB4XDTE5MDMxMzIyMDQwOVoXDTI5MDMxMDIyMDQw
OVowdjELMAkGA1UEBhMCVVMxETAPBgNVBAgMCE1pc3NvdXJpMR0wGwYDVQQKDBRP
YmplY3QgQ29tcHV0aW5nIEluYzEMMAoGA1UEAwwDT0NJMScwJQYJKoZIhvcNAQkB
FhhpbmZvQG9iamVjdGNvbXB1dGluZy5jb20wggEiMA0GCSqGSIb3DQEBAQUAA4IB
DwAwggEKAoIBAQDb4dY+NipfEPWTL0djvwFPig3/H9AY5gD3g+uJ+PfEV92WQsLc
tmkMC1x0v5h3yGmQBa4e7f7O95qX5AAVN0sord3OshkFKQr0RN+ZbArhoWqGkACi
2TuHKoYge/6dMrPntP+eDfzWbZU13yL+EvP9kMCgdCfL8PjlipQzpLURl2UCP7Cx
v9U628wAJGYUYXn9aL+4QiZN5drgBOZ/+52ojvWFmyzxpkGi5ElpayaV461ZkbyM
eRI3SjABo922u2C86z6MVxqz2HMs0K7oB7mMfSEl+3TcGMzZp6Z7eYt5CTn2bsOK
0jFY8kwTk2kltDYXlsQ5P+ZYPzrdayWKJGBFAgMBAAEwDQYJKoZIhvcNAQELBQAD
ggEBAFyj/+22cOpxWeDTx1b2SIFwVtMUwRGkiPPXstXmddxXoX0zyqGKMBuuWcw5
TxpF0ZCq8tbzzTmsLjdUk0+aFQxiqm+iV5oev0Cuj0zobTMzCaj/EAj+RZF9Uht6
p4ulY+AXTD7ka1lCRe355acb0IJjcZENjDRhQD94A13NF1ZvedZqz5/HKHMXcf3e
jT0Mva2l3QVHcEQkJGVcqqJD5x6vhqF5eMTfYk1a3Y3lgi8/zpvwdqY+sDvK3luX
UPhzQ2I5VCuLl0psPGqHQvLKvwQrdSEEj93chgtfOfIZ5z3B8cH7wjapTEQBaPcT
8IpovBeo6o2I79NmD7X3DuXZ7J4=
-----END CERTIFICATE-----
