Certificate:
    Data:
        Version: 1 (0x0)
        Serial Number: 2 (0x2)
    Signature Algorithm: sha256WithRSAEncryption
        Issuer: C=US, ST=MO, L=Saint Louis, O=Object Computing (Test Identity CA), CN=Object Computing (Test Identity CA)/emailAddress=info@objectcomputing.com
        Validity
            Not Before: Mar 13 22:05:57 2019 GMT
            Not After : Mar 10 22:05:57 2029 GMT
        Subject: C=US, ST=Missouri, O=Magical Locks Inc, CN=MLI/emailAddress=info@example.com
        Subject Public Key Info:
            Public Key Algorithm: rsaEncryption
                Public-Key: (2048 bit)
                Modulus:
                    00:b3:e5:a0:9b:0a:a9:07:c2:6c:5f:eb:1d:0c:91:
                    ef:1c:40:82:af:0e:6c:0d:7c:d1:2c:85:f3:3d:31:
                    0b:a5:52:36:77:62:c1:8a:60:af:ab:31:39:d8:18:
                    f4:38:44:dd:2c:86:51:d6:cc:c6:50:ab:e8:35:aa:
                    56:e8:f4:bf:0f:b9:1b:53:5f:75:35:d7:08:a0:0a:
                    65:12:53:b5:a2:0c:04:fa:0b:80:2e:9d:ec:29:18:
                    28:46:94:42:a7:1e:80:c8:77:4d:fd:d1:24:ad:6b:
                    ef:ef:61:62:f8:fd:ea:b9:ef:d0:1e:6c:64:70:72:
                    e0:17:ba:e1:bd:a3:36:3b:70:4a:db:6f:1c:bd:b4:
                    fe:1a:d7:aa:62:08:75:f3:44:d2:67:fc:02:50:13:
                    68:50:5e:35:f7:a3:19:00:14:ea:84:4c:d1:d0:07:
                    16:37:73:ae:c8:c2:13:bf:f1:74:a4:87:91:28:27:
                    b2:0a:73:d0:fe:2b:cd:12:06:03:31:dd:a0:e8:f9:
                    fb:7a:c5:5a:ed:37:43:a7:79:73:bf:4b:f8:c9:30:
                    ff:24:88:fb:96:33:0d:fe:38:fc:51:66:ac:73:53:
                    7e:9b:38:fc:41:b3:79:c5:95:b5:f8:c2:b2:03:3a:
                    92:c0:b3:bf:34:ef:6c:8e:da:c7:9e:5f:f9:da:7f:
                    52:d1
                Exponent: 65537 (0x10001)
    Signature Algorithm: sha256WithRSAEncryption
         53:cd:b9:2d:26:6e:34:6c:b0:3c:f3:5e:28:2e:4d:ab:0c:4a:
         81:b0:24:b6:94:66:19:e7:8f:7b:ce:32:fa:c5:d8:93:e3:35:
         5e:f3:b2:5e:b2:c6:0c:16:7f:8a:dd:e9:47:dd:c7:55:29:a8:
         eb:b1:7a:9d:8d:f2:ff:a7:e3:6a:a5:6d:c1:19:bf:db:23:e7:
         40:6a:8e:24:d6:e9:4c:76:c5:8f:31:1a:0e:8d:e7:a8:f3:7e:
         bc:26:b5:fa:b1:48:9d:e1:47:7d:23:4a:83:db:7e:fa:e2:d1:
         0e:29:13:2c:10:07:e6:eb:bb:1a:83:63:3a:32:d5:97:c2:5d:
         61:76:80:3c:ec:4a:7f:ae:24:e5:37:86:71:d9:47:15:47:4a:
         54:46:5d:8f:ff:ee:62:a3:77:9d:df:af:bd:cd:42:9b:13:d1:
         a9:bc:aa:5f:cc:9b:32:0c:e3:85:bc:df:6a:4b:3c:85:d2:c9:
         47:87:c9:a9:d7:91:c5:0a:89:88:f1:b6:d1:49:46:16:2c:ef:
         ab:a4:b4:9f:3c:c3:01:ea:57:ef:1c:2b:54:9f:74:f3:49:17:
         f6:d6:77:64:13:c4:86:16:5e:9f:87:a0:a3:ac:e7:fe:22:eb:
         8c:d2:bd:23:7b:ae:2b:d4:26:0b:76:0a:90:ab:ac:65:6b:94:
         14:ec:9b:37
-----BEGIN CERTIFICATE-----
MIIDlTCCAn0CAQIwDQYJKoZIhvcNAQELBQAwgbUxCzAJBgNVBAYTAlVTMQswCQYD
VQQIDAJNTzEUMBIGA1UEBwwLU2FpbnQgTG91aXMxLDAqBgNVBAoMI09iamVjdCBD
b21wdXRpbmcgKFRlc3QgSWRlbnRpdHkgQ0EpMSwwKgYDVQQDDCNPYmplY3QgQ29t
cHV0aW5nIChUZXN0IElkZW50aXR5IENBKTEnMCUGCSqGSIb3DQEJARYYaW5mb0Bv
YmplY3Rjb21wdXRpbmcuY29tMB4XDTE5MDMxMzIyMDU1N1oXDTI5MDMxMDIyMDU1
N1owazELMAkGA1UEBhMCVVMxETAPBgNVBAgMCE1pc3NvdXJpMRowGAYDVQQKDBFN
YWdpY2FsIExvY2tzIEluYzEMMAoGA1UEAwwDTUxJMR8wHQYJKoZIhvcNAQkBFhBp
bmZvQGV4YW1wbGUuY29tMIIBIjANBgkqhkiG9w0BAQEFAAOCAQ8AMIIBCgKCAQEA
s+WgmwqpB8JsX+sdDJHvHECCrw5sDXzRLIXzPTELpVI2d2LBimCvqzE52Bj0OETd
LIZR1szGUKvoNapW6PS/D7kbU191NdcIoAplElO1ogwE+guALp3sKRgoRpRCpx6A
yHdN/dEkrWvv72Fi+P3que/QHmxkcHLgF7rhvaM2O3BK228cvbT+GteqYgh180TS
Z/wCUBNoUF4196MZABTqhEzR0AcWN3OuyMITv/F0pIeRKCeyCnPQ/ivNEgYDMd2g
6Pn7esVa7TdDp3lzv0v4yTD/JIj7ljMN/jj8UWasc1N+mzj8QbN5xZW1+MKyAzqS
wLO/NO9sjtrHnl/52n9S0QIDAQABMA0GCSqGSIb3DQEBCwUAA4IBAQBTzbktJm40
bLA8814oLk2rDEqBsCS2lGYZ5497zjL6xdiT4zVe87JessYMFn+K3elH3cdVKajr
sXqdjfL/p+NqpW3BGb/bI+dAao4k1ulMdsWPMRoOjeeo8368JrX6sUid4Ud9I0qD
23764tEOKRMsEAfm67sag2M6MtWXwl1hdoA87Ep/riTlN4Zx2UcVR0pURl2P/+5i
o3ed36+9zUKbE9GpvKpfzJsyDOOFvN9qSzyF0slHh8mp15HFComI8bbRSUYWLO+r
pLSfPMMB6lfvHCtUn3TzSRf21ndkE8SGFl6fh6CjrOf+IuuM0r0je64r1CYLdgqQ
q6xla5QU7Js3
-----END CERTIFICATE-----
