Certificate:
    Data:
        Version: 1 (0x0)
        Serial Number: 3 (0x3)
    Signature Algorithm: sha256WithRSAEncryption
        Issuer: C=US, ST=MO, L=Saint Louis, O=Object Computing (Test Identity CA), CN=Object Computing (Test Identity CA)/emailAddress=info@objectcomputing.com
        Validity
            Not Before: Mar 13 22:06:42 2019 GMT
            Not After : Mar 10 22:06:42 2029 GMT
        Subject: C=us, ST=Missouri, O=Magical Locks Inc, CN=MLI/emailAddress=info@example.com
        Subject Public Key Info:
            Public Key Algorithm: rsaEncryption
                Public-Key: (2048 bit)
                Modulus:
                    00:cf:c4:25:cd:6b:39:32:ab:9b:62:06:84:38:96:
                    02:fa:d8:5c:82:58:d4:fb:6d:52:40:54:9e:2c:96:
                    51:32:af:be:d7:22:ad:32:61:45:39:d5:0d:f7:09:
                    23:ec:6a:58:16:88:76:ff:b9:7e:39:10:8b:68:f2:
                    6a:0d:0f:e7:68:a3:d7:11:82:be:8f:75:37:c5:23:
                    51:67:05:76:8e:4d:cb:16:cd:02:4c:74:6a:9a:06:
                    82:28:5e:5a:4f:de:1d:ca:ce:a7:aa:f2:8d:49:dc:
                    ba:b0:54:76:61:08:d6:09:67:79:0e:c7:11:9c:9f:
                    18:4a:b0:72:fa:89:27:45:71:17:f9:fb:90:6f:e7:
                    35:81:fe:5b:d1:14:44:15:d5:d8:fa:da:5b:4f:5b:
                    49:34:72:47:49:63:b6:7a:6f:2f:35:9e:95:ea:1e:
                    0a:ce:f8:de:f9:12:62:fd:11:a4:09:09:27:32:cb:
                    97:61:d1:78:7b:1d:af:44:0f:a9:7a:02:cd:73:3c:
                    f3:b5:0d:d8:fc:2e:52:40:78:75:df:41:12:ab:d9:
                    50:f9:37:30:fc:66:c6:0d:bc:82:72:55:5a:66:c0:
                    1a:5f:8c:37:08:84:77:10:13:29:0f:51:94:75:c8:
                    39:e1:58:69:aa:9f:70:fc:84:6f:79:75:e4:95:8b:
                    80:b1
                Exponent: 65537 (0x10001)
    Signature Algorithm: sha256WithRSAEncryption
         0c:a0:63:04:0b:83:e1:c1:d4:fb:ab:41:9d:ba:0d:9e:96:1c:
         08:e6:6d:cc:48:c5:c8:d0:40:93:7c:59:77:90:fc:83:c9:8c:
         53:67:25:51:cc:f9:d2:9f:d8:95:0f:8e:e5:bc:b1:23:66:47:
         53:01:2d:a0:01:86:af:3c:78:7c:83:1d:db:48:3d:4e:ce:d1:
         1a:0f:eb:04:e5:49:21:7b:bf:ef:6e:2d:16:f2:ba:81:5e:5f:
         b1:1d:d0:6c:7c:07:88:36:4f:6c:2a:e9:ea:8c:70:22:13:ff:
         d5:af:8e:e7:48:af:65:31:d3:25:8e:93:2a:71:a8:87:1a:db:
         5a:3f:0c:85:76:27:ec:cb:1d:a9:a4:f2:51:cd:12:1f:a8:df:
         d0:23:61:bb:eb:81:a7:71:20:73:84:80:88:cd:37:51:29:77:
         49:6c:56:c1:03:dd:a7:06:a9:c9:20:78:43:04:ac:41:97:03:
         fb:d5:01:5d:ad:1b:ea:c7:96:9f:48:44:3d:ce:bc:7b:68:b5:
         d4:1e:65:f5:7c:8c:76:d6:e0:0c:e4:89:46:e5:23:c0:ee:d8:
         7a:89:13:16:80:bd:f6:29:62:88:7e:cb:5d:b8:a6:ef:08:e9:
         54:ca:a6:f4:62:69:1d:b2:40:6d:25:42:88:89:21:b4:6e:cf:
         f9:b4:26:74
-----BEGIN CERTIFICATE-----
MIIDlTCCAn0CAQMwDQYJKoZIhvcNAQELBQAwgbUxCzAJBgNVBAYTAlVTMQswCQYD
VQQIDAJNTzEUMBIGA1UEBwwLU2FpbnQgTG91aXMxLDAqBgNVBAoMI09iamVjdCBD
b21wdXRpbmcgKFRlc3QgSWRlbnRpdHkgQ0EpMSwwKgYDVQQDDCNPYmplY3QgQ29t
cHV0aW5nIChUZXN0IElkZW50aXR5IENBKTEnMCUGCSqGSIb3DQEJARYYaW5mb0Bv
YmplY3Rjb21wdXRpbmcuY29tMB4XDTE5MDMxMzIyMDY0MloXDTI5MDMxMDIyMDY0
MlowazELMAkGA1UEBhMCdXMxETAPBgNVBAgMCE1pc3NvdXJpMRowGAYDVQQKDBFN
YWdpY2FsIExvY2tzIEluYzEMMAoGA1UEAwwDTUxJMR8wHQYJKoZIhvcNAQkBFhBp
bmZvQGV4YW1wbGUuY29tMIIBIjANBgkqhkiG9w0BAQEFAAOCAQ8AMIIBCgKCAQEA
z8QlzWs5MqubYgaEOJYC+thcgljU+21SQFSeLJZRMq++1yKtMmFFOdUN9wkj7GpY
Foh2/7l+ORCLaPJqDQ/naKPXEYK+j3U3xSNRZwV2jk3LFs0CTHRqmgaCKF5aT94d
ys6nqvKNSdy6sFR2YQjWCWd5DscRnJ8YSrBy+oknRXEX+fuQb+c1gf5b0RREFdXY
+tpbT1tJNHJHSWO2em8vNZ6V6h4Kzvje+RJi/RGkCQknMsuXYdF4ex2vRA+pegLN
czzztQ3Y/C5SQHh130ESq9lQ+Tcw/GbGDbyCclVaZsAaX4w3CIR3EBMpD1GUdcg5
4Vhpqp9w/IRveXXklYuAsQIDAQABMA0GCSqGSIb3DQEBCwUAA4IBAQAMoGMEC4Ph
wdT7q0Gdug2elhwI5m3MSMXI0ECTfFl3kPyDyYxTZyVRzPnSn9iVD47lvLEjZkdT
AS2gAYavPHh8gx3bSD1OztEaD+sE5Ukhe7/vbi0W8rqBXl+xHdBsfAeINk9sKunq
jHAiE//Vr47nSK9lMdMljpMqcaiHGttaPwyFdifsyx2ppPJRzRIfqN/QI2G764Gn
cSBzhICIzTdRKXdJbFbBA92nBqnJIHhDBKxBlwP71QFdrRvqx5afSEQ9zrx7aLXU
HmX1fIx21uAM5IlG5SPA7th6iRMWgL32KWKIfstduKbvCOlUyqb0YmkdskBtJUKI
iSG0bs/5tCZ0
-----END CERTIFICATE-----
