Certificate:
    Data:
        Version: 1 (0x0)
        Serial Number: 5 (0x5)
    Signature Algorithm: sha256WithRSAEncryption
        Issuer: C=US, ST=MO, L=Saint Louis, O=Object Computing (Test Identity CA), CN=Object Computing (Test Identity CA)/emailAddress=info@objectcomputing.com
        Validity
            Not Before: Mar 13 22:27:30 2019 GMT
            Not After : Mar 10 22:27:30 2029 GMT
        Subject: C=US, ST=Missouri, O=Default Company Ltd, CN=Lock One
        Subject Public Key Info:
            Public Key Algorithm: rsaEncryption
                Public-Key: (2048 bit)
                Modulus:
                    00:a3:12:ef:b0:5d:d8:71:ef:ab:af:e5:ec:fd:90:
                    6c:52:68:22:f4:fa:b4:df:07:8c:18:29:78:61:20:
                    a1:e1:2a:b9:f5:f7:75:40:e3:a0:b2:9d:28:05:d9:
                    84:fa:95:fc:3b:fb:2b:6f:4d:da:c3:ff:e3:1a:05:
                    ce:55:56:3f:71:90:b3:8d:f0:0b:73:08:30:d9:c3:
                    d3:77:0a:5f:05:41:51:60:54:7b:e7:37:5e:dd:ee:
                    f4:c2:67:fc:f6:e1:9e:b0:b5:f4:b4:00:3c:ed:1f:
                    cc:06:db:8e:29:df:a5:f8:8a:3f:6b:6b:dd:12:03:
                    79:2b:d5:8d:b8:d5:d7:85:cc:33:c9:f1:c7:b7:70:
                    e2:95:42:ff:05:76:60:4b:15:f6:9c:49:46:6f:5c:
                    d7:8f:a9:75:0d:4d:bf:a5:1b:fb:72:6c:58:4f:1d:
                    aa:70:91:ef:a5:57:7e:c2:36:ef:fc:b1:73:65:39:
                    a4:95:24:fc:09:54:ce:56:28:f2:1c:06:39:23:a8:
                    de:fa:6e:a7:a0:42:74:7c:41:bb:f3:4c:4f:5d:82:
                    5a:c5:f4:7c:c7:fa:94:da:ef:07:1e:a7:db:37:d6:
                    b9:14:80:16:d7:eb:c8:0f:31:12:88:f2:5e:92:74:
                    48:d8:2e:3e:46:5d:c6:01:c6:1a:62:14:94:10:3c:
                    99:e1
                Exponent: 65537 (0x10001)
    Signature Algorithm: sha256WithRSAEncryption
         25:d7:7b:07:f4:bc:53:e4:ae:cd:19:23:0d:66:ac:8b:f0:38:
         ca:0b:14:9b:a0:e9:cd:ef:9b:7a:3b:d7:ce:54:69:41:7a:3e:
         fc:35:bc:24:3b:88:cf:03:79:13:dd:cb:32:5f:43:bc:01:1e:
         ba:92:d5:53:7d:68:83:ae:73:55:90:7b:2a:15:b5:25:30:4e:
         09:a9:e7:74:36:e2:e5:10:08:27:26:92:87:6f:76:fc:40:c2:
         f8:89:39:aa:31:9d:25:ae:00:36:d9:4d:0e:0d:d8:fd:42:96:
         c4:be:78:19:7a:70:17:d1:86:60:3a:31:aa:89:04:dc:15:bf:
         3d:5e:64:77:d6:10:94:3e:87:17:ab:03:06:43:a9:5b:64:21:
         b5:1b:c0:c3:75:4d:4f:f4:6a:54:01:5b:3c:e8:82:4a:26:12:
         34:3f:a1:0d:e6:47:c6:2a:08:53:a3:01:36:d4:00:d9:91:49:
         c7:17:6e:34:7d:2e:68:fb:d4:0d:5d:11:f1:48:16:de:0d:36:
         f7:66:14:0b:41:ee:90:a0:e0:ab:a6:9c:c4:f7:4a:df:ad:57:
         41:a4:f4:00:12:2c:6f:60:a4:f1:00:40:bf:2b:7c:49:9a:62:
         b4:f9:b4:e0:13:05:62:55:5a:18:7f:9f:31:0a:ca:d5:05:d5:
         e9:1b:49:7f
-----BEGIN CERTIFICATE-----
MIIDezCCAmMCAQUwDQYJKoZIhvcNAQELBQAwgbUxCzAJBgNVBAYTAlVTMQswCQYD
VQQIDAJNTzEUMBIGA1UEBwwLU2FpbnQgTG91aXMxLDAqBgNVBAoMI09iamVjdCBD
b21wdXRpbmcgKFRlc3QgSWRlbnRpdHkgQ0EpMSwwKgYDVQQDDCNPYmplY3QgQ29t
cHV0aW5nIChUZXN0IElkZW50aXR5IENBKTEnMCUGCSqGSIb3DQEJARYYaW5mb0Bv
YmplY3Rjb21wdXRpbmcuY29tMB4XDTE5MDMxMzIyMjczMFoXDTI5MDMxMDIyMjcz
MFowUTELMAkGA1UEBhMCVVMxETAPBgNVBAgMCE1pc3NvdXJpMRwwGgYDVQQKDBNE
ZWZhdWx0IENvbXBhbnkgTHRkMREwDwYDVQQDDAhMb2NrIE9uZTCCASIwDQYJKoZI
hvcNAQEBBQADggEPADCCAQoCggEBAKMS77Bd2HHvq6/l7P2QbFJoIvT6tN8HjBgp
eGEgoeEqufX3dUDjoLKdKAXZhPqV/Dv7K29N2sP/4xoFzlVWP3GQs43wC3MIMNnD
03cKXwVBUWBUe+c3Xt3u9MJn/PbhnrC19LQAPO0fzAbbjinfpfiKP2tr3RIDeSvV
jbjV14XMM8nxx7dw4pVC/wV2YEsV9pxJRm9c14+pdQ1Nv6Ub+3JsWE8dqnCR76VX
fsI27/yxc2U5pJUk/AlUzlYo8hwGOSOo3vpup6BCdHxBu/NMT12CWsX0fMf6lNrv
Bx6n2zfWuRSAFtfryA8xEojyXpJ0SNguPkZdxgHGGmIUlBA8meECAwEAATANBgkq
hkiG9w0BAQsFAAOCAQEAJdd7B/S8U+SuzRkjDWasi/A4ygsUm6Dpze+bejvXzlRp
QXo+/DW8JDuIzwN5E93LMl9DvAEeupLVU31og65zVZB7KhW1JTBOCanndDbi5RAI
JyaSh292/EDC+Ik5qjGdJa4ANtlNDg3Y/UKWxL54GXpwF9GGYDoxqokE3BW/PV5k
d9YQlD6HF6sDBkOpW2QhtRvAw3VNT/RqVAFbPOiCSiYSND+hDeZHxioIU6MBNtQA
2ZFJxxduNH0uaPvUDV0R8UgW3g0292YUC0HukKDgq6acxPdK361XQaT0ABIsb2Ck
8QBAvyt8SZpitPm04BMFYlVaGH+fMQrK1QXV6RtJfw==
-----END CERTIFICATE-----
